#include <math.h>
#include <stdio.h>
#include <stdlib.h>
#include <string.h>


main()
{
      int w;
      scanf("%d",&w);
      if((5+w)%7==5)
        printf("1\n");
      if((1+w)%7==5)
       printf("2\n3\n");
      if((4+w)%7==5)
       printf("4\n");
       if((6+w)%7==5)
       printf("5\n");
       if((2+w)%7==5)
       printf("6\n");
       if((4+w)%7==5)
       printf("7\n");
       if((7+w)%7==5)
       printf("8\n");
       if((3+w)%7==5)
       printf("9\n");
       if((5+w)%7==5)
       printf("10\n");
       if((1+w)%7==5)
        printf("11\n");
       if((3+w)%7==5)
        printf("12\n");
       
       return 0;
}
